target datalayout = "e-m:e-p270:32:32-p271:32:32-p272:64:64-i64:64-i128:128-f80:128-n8:16:32:64-S128"
target triple = "x86_64-unknown-linux-gnu"

%"class.base::BucketRanges" = type <{ %"class.std::vector", i32, [4 x i8] }>
%"class.std::vector" = type { %"struct.std::_Vector_base" }
%"struct.std::_Vector_base" = type { %"struct.std::_Vector_base<int, std::allocator<int>>::_Vector_impl" }
%"struct.std::_Vector_base<int, std::allocator<int>>::_Vector_impl" = type { %"struct.std::_Vector_base<int, std::allocator<int>>::_Vector_impl_data" }
%"struct.std::_Vector_base<int, std::allocator<int>>::_Vector_impl_data" = type { ptr, ptr, ptr }

@_ZN4base13HistogramBase15kSampleType_MAXE = external constant i32, align 4

; Function Attrs: mustprogress nounwind uwtable
define linkonce_odr dso_local noundef i64 @_ZNKSt6vectorIiSaIiEE4sizeEv(ptr noundef nonnull align 8 dereferenceable(24) %this) #2 comdat align 2 {
entry:
  %this.addr = alloca ptr, align 8
  store ptr %this, ptr %this.addr, align 8
  %this1 = load ptr, ptr %this.addr, align 8
  %_M_impl = getelementptr inbounds %"struct.std::_Vector_base", ptr %this1, i32 0, i32 0
  %_M_finish = getelementptr inbounds %"struct.std::_Vector_base<int, std::allocator<int>>::_Vector_impl_data", ptr %_M_impl, i32 0, i32 1
  %0 = load ptr, ptr %_M_finish, align 8
  %_M_impl2 = getelementptr inbounds %"struct.std::_Vector_base", ptr %this1, i32 0, i32 0
  %_M_start = getelementptr inbounds %"struct.std::_Vector_base<int, std::allocator<int>>::_Vector_impl_data", ptr %_M_impl2, i32 0, i32 0
  %1 = load ptr, ptr %_M_start, align 8
  %sub.ptr.lhs.cast = ptrtoint ptr %0 to i64
  %sub.ptr.rhs.cast = ptrtoint ptr %1 to i64
  %sub.ptr.sub = sub i64 %sub.ptr.lhs.cast, %sub.ptr.rhs.cast
  %sub.ptr.div = sdiv exact i64 %sub.ptr.sub, 4
  ret i64 %sub.ptr.div
}

; Function Attrs: mustprogress nounwind uwtable
define linkonce_odr dso_local noundef i64 @_ZNK4base12BucketRanges12bucket_countEv(ptr noundef nonnull align 8 dereferenceable(28) %this) #2 comdat align 2 {
entry:
  %this.addr = alloca ptr, align 8
  store ptr %this, ptr %this.addr, align 8
  %this1 = load ptr, ptr %this.addr, align 8
  %ranges_ = getelementptr inbounds %"class.base::BucketRanges", ptr %this1, i32 0, i32 0
  %call = call noundef i64 @_ZNKSt6vectorIiSaIiEE4sizeEv(ptr noundef nonnull align 8 dereferenceable(24) %ranges_) #12
  %sub = sub i64 %call, 1
  ret i64 %sub
}

; Function Attrs: mustprogress uwtable
define dso_local void @_ZN4base15LinearHistogram22InitializeBucketRangesEiiPNS_12BucketRangesE(i32 noundef %minimum, i32 noundef %maximum, ptr noundef %ranges) #0 align 2 {
entry:
  %minimum.addr = alloca i32, align 4
  %maximum.addr = alloca i32, align 4
  %ranges.addr = alloca ptr, align 8
  %min = alloca double, align 8
  %max = alloca double, align 8
  %bucket_count = alloca i64, align 8
  %i = alloca i64, align 8
  %linear_range = alloca double, align 8
  store i32 %minimum, ptr %minimum.addr, align 4
  store i32 %maximum, ptr %maximum.addr, align 4
  store ptr %ranges, ptr %ranges.addr, align 8
  %0 = load i32, ptr %minimum.addr, align 4
  %conv = sitofp i32 %0 to double
  store double %conv, ptr %min, align 8
  %1 = load i32, ptr %maximum.addr, align 4
  %conv1 = sitofp i32 %1 to double
  store double %conv1, ptr %max, align 8
  %2 = load ptr, ptr %ranges.addr, align 8
  %call = call noundef i64 @_ZNK4base12BucketRanges12bucket_countEv(ptr noundef nonnull align 8 dereferenceable(28) %2)
  store i64 %call, ptr %bucket_count, align 8
  store i64 1, ptr %i, align 8
  br label %for.cond

for.cond:                                         ; preds = %for.inc, %entry
  %3 = load i64, ptr %i, align 8
  %4 = load i64, ptr %bucket_count, align 8
  %cmp = icmp ult i64 %3, %4
  br i1 %cmp, label %for.body, label %for.end

for.body:                                         ; preds = %for.cond
  %5 = load double, ptr %min, align 8
  %6 = load i64, ptr %bucket_count, align 8
  %sub = sub i64 %6, 1
  %7 = load i64, ptr %i, align 8
  %sub2 = sub i64 %sub, %7
  %conv3 = uitofp i64 %sub2 to double
  %8 = load double, ptr %max, align 8
  %9 = load i64, ptr %i, align 8
  %sub4 = sub i64 %9, 1
  %conv5 = uitofp i64 %sub4 to double
  %mul6 = fmul double %8, %conv5
  %10 = call double @llvm.fmuladd.f64(double %5, double %conv3, double %mul6)
  %11 = load i64, ptr %bucket_count, align 8
  %sub7 = sub i64 %11, 2
  %conv8 = uitofp i64 %sub7 to double
  %div = fdiv double %10, %conv8
  store double %div, ptr %linear_range, align 8
  %12 = load ptr, ptr %ranges.addr, align 8
  %13 = load i64, ptr %i, align 8
  %14 = load double, ptr %linear_range, align 8
  %add = fadd double %14, 5.000000e-01
  %conv9 = fptosi double %add to i32
  call void @_ZN4base12BucketRanges9set_rangeEmi(ptr noundef nonnull align 8 dereferenceable(28) %12, i64 noundef %13, i32 noundef %conv9)
  call void @_ZN4base5debug5AliasEPKv(ptr noundef %linear_range)
  br label %for.inc

for.inc:                                          ; preds = %for.body
  %15 = load i64, ptr %i, align 8
  %inc = add i64 %15, 1
  store i64 %inc, ptr %i, align 8
  br label %for.cond, !llvm.loop !15

for.end:                                          ; preds = %for.cond
  %16 = load ptr, ptr %ranges.addr, align 8
  %17 = load ptr, ptr %ranges.addr, align 8
  %call10 = call noundef i64 @_ZNK4base12BucketRanges12bucket_countEv(ptr noundef nonnull align 8 dereferenceable(28) %17)
  %18 = load i32, ptr @_ZN4base13HistogramBase15kSampleType_MAXE, align 4
  call void @_ZN4base12BucketRanges9set_rangeEmi(ptr noundef nonnull align 8 dereferenceable(28) %16, i64 noundef %call10, i32 noundef %18)
  %19 = load ptr, ptr %ranges.addr, align 8
  call void @_ZN4base12BucketRanges13ResetChecksumEv(ptr noundef nonnull align 8 dereferenceable(28) %19)
  ret void
}