; Function Attrs: mustprogress uwtable
define dso_local void @_ZN4base15LinearHistogram22InitializeBucketRangesEiiPNS_12BucketRangesE(i32 noundef %minimum, i32 noundef %maximum, ptr noundef %ranges) local_unnamed_addr #0 align 2 {
entry:
  %linear_range = alloca double, align 8
  %conv = sitofp i32 %minimum to double
  %conv1 = sitofp i32 %maximum to double
  %_M_finish.i.i = getelementptr inbounds i8, ptr %ranges, i64 8
  %0 = load ptr, ptr %_M_finish.i.i, align 8
  %1 = load ptr, ptr %ranges, align 8
  %sub.ptr.lhs.cast.i.i = ptrtoint ptr %0 to i64
  %sub.ptr.rhs.cast.i.i = ptrtoint ptr %1 to i64
  %sub.ptr.sub.i.i = sub i64 %sub.ptr.lhs.cast.i.i, %sub.ptr.rhs.cast.i.i
  %sub.ptr.div.i.i = ashr exact i64 %sub.ptr.sub.i.i, 2
  %sub.i = add nsw i64 %sub.ptr.div.i.i, -1
  %cmp17 = icmp ugt i64 %sub.i, 1
  br i1 %cmp17, label %for.body.lr.ph, label %for.end

for.body.lr.ph:                                   ; preds = %entry
  %sub7 = add nsw i64 %sub.ptr.div.i.i, -3
  %conv8 = uitofp i64 %sub7 to double
  br label %for.body

for.body:                                         ; preds = %for.body.lr.ph, %for.body
  %i.018 = phi i64 [ 1, %for.body.lr.ph ], [ %inc, %for.body ]
  %2 = xor i64 %i.018, -1
  %sub2 = add i64 %sub.i, %2
  %conv3 = uitofp i64 %sub2 to double
  %sub4 = add i64 %i.018, -1
  %conv5 = uitofp i64 %sub4 to double
  %mul6 = fmul double %conv1, %conv5
  %3 = call double @llvm.fmuladd.f64(double %conv, double %conv3, double %mul6)
  %div = fdiv double %3, %conv8
  store double %div, ptr %linear_range, align 8
  %add = fadd double %div, 5.000000e-01
  %conv9 = fptosi double %add to i32
  call void @_ZN4base12BucketRanges9set_rangeEmi(ptr noundef nonnull align 8 dereferenceable(28) %ranges, i64 noundef %i.018, i32 noundef %conv9)
  call void @_ZN4base5debug5AliasEPKv(ptr noundef nonnull %linear_range)
  %inc = add nuw i64 %i.018, 1
  %exitcond.not = icmp eq i64 %inc, %sub.i
  br i1 %exitcond.not, label %for.end.loopexit, label %for.body, !llvm.loop !37

for.end.loopexit:                                 ; preds = %for.body
  %.pre = load ptr, ptr %_M_finish.i.i, align 8
  %.pre19 = load ptr, ptr %ranges, align 8
  %.pre20 = ptrtoint ptr %.pre to i64
  %.pre21 = ptrtoint ptr %.pre19 to i64
  %.pre22 = sub i64 %.pre20, %.pre21
  %.pre23 = ashr exact i64 %.pre22, 2
  %.pre24 = add nsw i64 %.pre23, -1
  br label %for.end

for.end:                                          ; preds = %for.end.loopexit, %entry
  %sub.i16.pre-phi = phi i64 [ %.pre24, %for.end.loopexit ], [ %sub.i, %entry ]
  %4 = load i32, ptr @_ZN4base13HistogramBase15kSampleType_MAXE, align 4
  call void @_ZN4base12BucketRanges9set_rangeEmi(ptr noundef nonnull align 8 dereferenceable(28) %ranges, i64 noundef %sub.i16.pre-phi, i32 noundef %4)
  call void @_ZN4base12BucketRanges13ResetChecksumEv(ptr noundef nonnull align 8 dereferenceable(28) %ranges)
  ret void
}